target datalayout = "e-m:e-p270:32:32-p271:32:32-p272:64:64-i64:64-i128:128-f80:128-n8:16:32:64-S128"
target triple = "x86_64-pc-linux-gnu"

%struct.jpeg_decompress_struct = type { ptr, ptr, ptr, ptr, i32, i32, ptr, i32, i32, i32, i32, i32, i32, i32, double, i32, i32, i32, i32, i32, i32, i32, i32, i32, i32, i32, i32, i32, i32, i32, i32, i32, i32, ptr, i32, i32, i32, i32, i32, ptr, [4 x ptr], [4 x ptr], [4 x ptr], i32, ptr, i32, i32, [16 x i8], [16 x i8], [16 x i8], i32, i32, i8, i8, i8, i16, i16, i32, i8, i32, ptr, i32, i32, i32, i32, ptr, i32, [4 x ptr], i32, i32, i32, [10 x i32], i32, i32, i32, i32, i32, ptr, ptr, ptr, ptr, ptr, ptr, ptr, ptr, ptr, ptr, ptr }
%struct.jpeg_memory_mgr = type { ptr, ptr, ptr, ptr, ptr, ptr, ptr, ptr, ptr, ptr, ptr, i64, i64 }
%struct.my_color_deconverter = type { %struct.jpeg_color_deconverter, ptr, ptr, ptr, ptr, ptr }
%struct.jpeg_color_deconverter = type { ptr, ptr, ptr, ptr }

; Function Attrs: nounwind uwtable
define internal void @build_ycc_rgb_table(ptr noundef %0) #0 {
  %2 = alloca ptr, align 8
  %3 = alloca ptr, align 8
  %4 = alloca i32, align 4
  %5 = alloca i64, align 8
  store ptr %0, ptr %2, align 8
  %6 = load ptr, ptr %2, align 8
  %7 = getelementptr inbounds %struct.jpeg_decompress_struct, ptr %6, i32 0, i32 86
  %8 = load ptr, ptr %7, align 8
  store ptr %8, ptr %3, align 8
  %9 = load ptr, ptr %2, align 8
  %10 = getelementptr inbounds %struct.jpeg_decompress_struct, ptr %9, i32 0, i32 1
  %11 = load ptr, ptr %10, align 8
  %12 = getelementptr inbounds %struct.jpeg_memory_mgr, ptr %11, i32 0, i32 0
  %13 = load ptr, ptr %12, align 8
  %14 = load ptr, ptr %2, align 8
  %15 = call ptr %13(ptr noundef %14, i32 noundef 1, i64 noundef 1024)
  %16 = load ptr, ptr %3, align 8
  %17 = getelementptr inbounds %struct.my_color_deconverter, ptr %16, i32 0, i32 1
  store ptr %15, ptr %17, align 8
  %18 = load ptr, ptr %2, align 8
  %19 = getelementptr inbounds %struct.jpeg_decompress_struct, ptr %18, i32 0, i32 1
  %20 = load ptr, ptr %19, align 8
  %21 = getelementptr inbounds %struct.jpeg_memory_mgr, ptr %20, i32 0, i32 0
  %22 = load ptr, ptr %21, align 8
  %23 = load ptr, ptr %2, align 8
  %24 = call ptr %22(ptr noundef %23, i32 noundef 1, i64 noundef 1024)
  %25 = load ptr, ptr %3, align 8
  %26 = getelementptr inbounds %struct.my_color_deconverter, ptr %25, i32 0, i32 2
  store ptr %24, ptr %26, align 8
  %27 = load ptr, ptr %2, align 8
  %28 = getelementptr inbounds %struct.jpeg_decompress_struct, ptr %27, i32 0, i32 1
  %29 = load ptr, ptr %28, align 8
  %30 = getelementptr inbounds %struct.jpeg_memory_mgr, ptr %29, i32 0, i32 0
  %31 = load ptr, ptr %30, align 8
  %32 = load ptr, ptr %2, align 8
  %33 = call ptr %31(ptr noundef %32, i32 noundef 1, i64 noundef 2048)
  %34 = load ptr, ptr %3, align 8
  %35 = getelementptr inbounds %struct.my_color_deconverter, ptr %34, i32 0, i32 3
  store ptr %33, ptr %35, align 8
  %36 = load ptr, ptr %2, align 8
  %37 = getelementptr inbounds %struct.jpeg_decompress_struct, ptr %36, i32 0, i32 1
  %38 = load ptr, ptr %37, align 8
  %39 = getelementptr inbounds %struct.jpeg_memory_mgr, ptr %38, i32 0, i32 0
  %40 = load ptr, ptr %39, align 8
  %41 = load ptr, ptr %2, align 8
  %42 = call ptr %40(ptr noundef %41, i32 noundef 1, i64 noundef 2048)
  %43 = load ptr, ptr %3, align 8
  %44 = getelementptr inbounds %struct.my_color_deconverter, ptr %43, i32 0, i32 4
  store ptr %42, ptr %44, align 8
  store i32 0, ptr %4, align 4
  store i64 -128, ptr %5, align 8
  br label %45

45:                                               ; preds = %88, %1
  %46 = load i32, ptr %4, align 4
  %47 = icmp sle i32 %46, 255
  br i1 %47, label %48, label %93

48:                                               ; preds = %45
  %49 = load i64, ptr %5, align 8
  %50 = mul nsw i64 91881, %49
  %51 = add nsw i64 %50, 32768
  %52 = ashr i64 %51, 16
  %53 = trunc i64 %52 to i32
  %54 = load ptr, ptr %3, align 8
  %55 = getelementptr inbounds %struct.my_color_deconverter, ptr %54, i32 0, i32 1
  %56 = load ptr, ptr %55, align 8
  %57 = load i32, ptr %4, align 4
  %58 = sext i32 %57 to i64
  %59 = getelementptr inbounds i32, ptr %56, i64 %58
  store i32 %53, ptr %59, align 4
  %60 = load i64, ptr %5, align 8
  %61 = mul nsw i64 116130, %60
  %62 = add nsw i64 %61, 32768
  %63 = ashr i64 %62, 16
  %64 = trunc i64 %63 to i32
  %65 = load ptr, ptr %3, align 8
  %66 = getelementptr inbounds %struct.my_color_deconverter, ptr %65, i32 0, i32 2
  %67 = load ptr, ptr %66, align 8
  %68 = load i32, ptr %4, align 4
  %69 = sext i32 %68 to i64
  %70 = getelementptr inbounds i32, ptr %67, i64 %69
  store i32 %64, ptr %70, align 4
  %71 = load i64, ptr %5, align 8
  %72 = mul nsw i64 -46802, %71
  %73 = load ptr, ptr %3, align 8
  %74 = getelementptr inbounds %struct.my_color_deconverter, ptr %73, i32 0, i32 3
  %75 = load ptr, ptr %74, align 8
  %76 = load i32, ptr %4, align 4
  %77 = sext i32 %76 to i64
  %78 = getelementptr inbounds i64, ptr %75, i64 %77
  store i64 %72, ptr %78, align 8
  %79 = load i64, ptr %5, align 8
  %80 = mul nsw i64 -22554, %79
  %81 = add nsw i64 %80, 32768
  %82 = load ptr, ptr %3, align 8
  %83 = getelementptr inbounds %struct.my_color_deconverter, ptr %82, i32 0, i32 4
  %84 = load ptr, ptr %83, align 8
  %85 = load i32, ptr %4, align 4
  %86 = sext i32 %85 to i64
  %87 = getelementptr inbounds i64, ptr %84, i64 %86
  store i64 %81, ptr %87, align 8
  br label %88

88:                                               ; preds = %48
  %89 = load i32, ptr %4, align 4
  %90 = add nsw i32 %89, 1
  store i32 %90, ptr %4, align 4
  %91 = load i64, ptr %5, align 8
  %92 = add nsw i64 %91, 1
  store i64 %92, ptr %5, align 8
  br label %45, !llvm.loop !23

93:                                               ; preds = %45
  ret void
}