; Function Attrs: nounwind uwtable
define internal fastcc void @build_ycc_rgb_table(ptr noundef %0) unnamed_addr #0 {
  %2 = getelementptr inbounds i8, ptr %0, i64 616
  %3 = load ptr, ptr %2, align 8
  %4 = getelementptr inbounds i8, ptr %0, i64 8
  %5 = load ptr, ptr %4, align 8
  %6 = load ptr, ptr %5, align 8
  %7 = tail call ptr %6(ptr noundef %0, i32 noundef 1, i64 noundef 1024) #4
  %8 = getelementptr inbounds i8, ptr %3, i64 32
  store ptr %7, ptr %8, align 8
  %9 = load ptr, ptr %4, align 8
  %10 = load ptr, ptr %9, align 8
  %11 = tail call ptr %10(ptr noundef %0, i32 noundef 1, i64 noundef 1024) #4
  %12 = getelementptr inbounds i8, ptr %3, i64 40
  store ptr %11, ptr %12, align 8
  %13 = load ptr, ptr %4, align 8
  %14 = load ptr, ptr %13, align 8
  %15 = tail call ptr %14(ptr noundef %0, i32 noundef 1, i64 noundef 2048) #4
  %16 = getelementptr inbounds i8, ptr %3, i64 48
  store ptr %15, ptr %16, align 8
  %17 = load ptr, ptr %4, align 8
  %18 = load ptr, ptr %17, align 8
  %19 = tail call ptr %18(ptr noundef %0, i32 noundef 1, i64 noundef 2048) #4
  %20 = getelementptr inbounds i8, ptr %3, i64 56
  store ptr %19, ptr %20, align 8
  br label %21

21:                                               ; preds = %1, %21
  %indvars.iv = phi i64 [ 0, %1 ], [ %indvars.iv.next, %21 ]
  %.029 = phi i64 [ -128, %1 ], [ %41, %21 ]
  %22 = mul nsw i64 %.029, 91881
  %23 = add nsw i64 %22, 32768
  %24 = lshr i64 %23, 16
  %25 = trunc i64 %24 to i32
  %26 = load ptr, ptr %8, align 8
  %27 = getelementptr inbounds i32, ptr %26, i64 %indvars.iv
  store i32 %25, ptr %27, align 4
  %28 = mul nsw i64 %.029, 116130
  %29 = add nsw i64 %28, 32768
  %30 = lshr i64 %29, 16
  %31 = trunc i64 %30 to i32
  %32 = load ptr, ptr %12, align 8
  %33 = getelementptr inbounds i32, ptr %32, i64 %indvars.iv
  store i32 %31, ptr %33, align 4
  %34 = mul nsw i64 %.029, -46802
  %35 = load ptr, ptr %16, align 8
  %36 = getelementptr inbounds i64, ptr %35, i64 %indvars.iv
  store i64 %34, ptr %36, align 8
  %37 = mul nsw i64 %.029, -22554
  %38 = add nsw i64 %37, 32768
  %39 = load ptr, ptr %20, align 8
  %40 = getelementptr inbounds i64, ptr %39, i64 %indvars.iv
  store i64 %38, ptr %40, align 8
  %indvars.iv.next = add nuw nsw i64 %indvars.iv, 1
  %41 = add nsw i64 %.029, 1
  %exitcond.not = icmp eq i64 %indvars.iv.next, 256
  br i1 %exitcond.not, label %42, label %21, !llvm.loop !6

42:                                               ; preds = %21
  ret void
}